target datalayout = "e-m:e-p270:32:32-p271:32:32-p272:64:64-i64:64-i128:128-f80:128-n8:16:32:64-S128"
target triple = "x86_64-pc-linux-gnu"

%"class.Imath_3_2::half" = type { i16 }
%"class.Imf_3_4::RgbaLut" = type <{ %class.halfFunction, i32, [4 x i8] }>
%class.halfFunction = type { ptr }
%"struct.Imf_3_4::roundNBit" = type { i32 }
%union.imath_half_uif = type { i32 }

@_ZTISt9exception = external constant ptr
@_ZN12_GLOBAL__N_112errorMessageE = internal global [1024 x i8] zeroinitializer, align 16

; Function Attrs: inlinehint mustprogress nounwind uwtable
define linkonce_odr hidden void @_ZN9Imath_3_24halfC2ENS0_11FromBitsTagEt(ptr noundef nonnull align 2 dereferenceable(2) %0, i32 noundef %1, i16 noundef zeroext %2) unnamed_addr #6 comdat align 2 {
  %4 = alloca ptr, align 8
  %5 = alloca i32, align 4
  %6 = alloca i16, align 2
  store ptr %0, ptr %4, align 8, !tbaa !12
  store i32 %1, ptr %5, align 4, !tbaa !177
  store i16 %2, ptr %6, align 2, !tbaa !10
  %7 = load ptr, ptr %4, align 8
  %8 = getelementptr inbounds nuw %"class.Imath_3_2::half", ptr %7, i32 0, i32 0
  %9 = load i16, ptr %6, align 2, !tbaa !10
  store i16 %9, ptr %8, align 2, !tbaa !14
  ret void
}

; Function Attrs: inlinehint mustprogress nounwind uwtable
define internal noundef zeroext i16 @_ZL19imath_float_to_halff(float noundef %0) #6 {
  %2 = alloca i16, align 2
  %3 = alloca float, align 4
  %4 = alloca %union.imath_half_uif, align 4
  %5 = alloca i16, align 2
  %6 = alloca i32, align 4
  %7 = alloca i32, align 4
  %8 = alloca i32, align 4
  %9 = alloca i32, align 4
  %10 = alloca i32, align 4
  %11 = alloca i32, align 4
  store float %0, ptr %3, align 4, !tbaa !3
  call void @llvm.lifetime.start.p0(i64 4, ptr %4) #3
  call void @llvm.lifetime.start.p0(i64 2, ptr %5) #3
  call void @llvm.lifetime.start.p0(i64 4, ptr %6) #3
  call void @llvm.lifetime.start.p0(i64 4, ptr %7) #3
  call void @llvm.lifetime.start.p0(i64 4, ptr %8) #3
  call void @llvm.lifetime.start.p0(i64 4, ptr %9) #3
  call void @llvm.lifetime.start.p0(i64 4, ptr %10) #3
  %12 = load float, ptr %3, align 4, !tbaa !3
  store float %12, ptr %4, align 4, !tbaa !32
  %13 = load i32, ptr %4, align 4, !tbaa !32
  %14 = and i32 %13, 2147483647
  store i32 %14, ptr %8, align 4, !tbaa !16
  %15 = load i32, ptr %4, align 4, !tbaa !32
  %16 = lshr i32 %15, 16
  %17 = and i32 %16, 32768
  %18 = trunc i32 %17 to i16
  store i16 %18, ptr %5, align 2, !tbaa !10
  %19 = load i32, ptr %8, align 4, !tbaa !16
  %20 = icmp uge i32 %19, 947912704
  br i1 %20, label %21, label %80

21:                                               ; preds = %1
  %22 = load i32, ptr %8, align 4, !tbaa !16
  %23 = icmp uge i32 %22, 2139095040
  %24 = zext i1 %23 to i64
  %25 = call i64 @llvm.expect.i64(i64 %24, i64 0)
  %26 = icmp ne i64 %25, 0
  br i1 %26, label %27, label %52

27:                                               ; preds = %21
  %28 = load i16, ptr %5, align 2, !tbaa !10
  %29 = zext i16 %28 to i32
  %30 = or i32 %29, 31744
  %31 = trunc i32 %30 to i16
  store i16 %31, ptr %5, align 2, !tbaa !10
  %32 = load i32, ptr %8, align 4, !tbaa !16
  %33 = icmp eq i32 %32, 2139095040
  br i1 %33, label %34, label %36

34:                                               ; preds = %27
  %35 = load i16, ptr %5, align 2, !tbaa !10
  store i16 %35, ptr %2, align 2
  store i32 1, ptr %11, align 4
  br label %119

36:                                               ; preds = %27
  %37 = load i32, ptr %8, align 4, !tbaa !16
  %38 = and i32 %37, 8388607
  %39 = lshr i32 %38, 13
  store i32 %39, ptr %7, align 4, !tbaa !16
  %40 = load i16, ptr %5, align 2, !tbaa !10
  %41 = zext i16 %40 to i32
  %42 = load i32, ptr %7, align 4, !tbaa !16
  %43 = trunc i32 %42 to i16
  %44 = zext i16 %43 to i32
  %45 = or i32 %41, %44
  %46 = load i32, ptr %7, align 4, !tbaa !16
  %47 = icmp eq i32 %46, 0
  %48 = zext i1 %47 to i16
  %49 = zext i16 %48 to i32
  %50 = or i32 %45, %49
  %51 = trunc i32 %50 to i16
  store i16 %51, ptr %2, align 2
  store i32 1, ptr %11, align 4
  br label %119

52:                                               ; preds = %21
  %53 = load i32, ptr %8, align 4, !tbaa !16
  %54 = icmp ugt i32 %53, 1199566847
  %55 = zext i1 %54 to i64
  %56 = call i64 @llvm.expect.i64(i64 %55, i64 0)
  %57 = icmp ne i64 %56, 0
  br i1 %57, label %58, label %63

58:                                               ; preds = %52
  %59 = load i16, ptr %5, align 2, !tbaa !10
  %60 = zext i16 %59 to i32
  %61 = or i32 %60, 31744
  %62 = trunc i32 %61 to i16
  store i16 %62, ptr %2, align 2
  store i32 1, ptr %11, align 4
  br label %119

63:                                               ; preds = %52
  %64 = load i32, ptr %8, align 4, !tbaa !16
  %65 = sub i32 %64, 939524096
  store i32 %65, ptr %8, align 4, !tbaa !16
  %66 = load i32, ptr %8, align 4, !tbaa !16
  %67 = add i32 %66, 4095
  %68 = load i32, ptr %8, align 4, !tbaa !16
  %69 = lshr i32 %68, 13
  %70 = and i32 %69, 1
  %71 = add i32 %67, %70
  %72 = lshr i32 %71, 13
  store i32 %72, ptr %8, align 4, !tbaa !16
  %73 = load i16, ptr %5, align 2, !tbaa !10
  %74 = zext i16 %73 to i32
  %75 = load i32, ptr %8, align 4, !tbaa !16
  %76 = trunc i32 %75 to i16
  %77 = zext i16 %76 to i32
  %78 = or i32 %74, %77
  %79 = trunc i32 %78 to i16
  store i16 %79, ptr %2, align 2
  store i32 1, ptr %11, align 4
  br label %119

80:                                               ; preds = %1
  %81 = load i32, ptr %8, align 4, !tbaa !16
  %82 = icmp ult i32 %81, 855638017
  br i1 %82, label %83, label %85

83:                                               ; preds = %80
  %84 = load i16, ptr %5, align 2, !tbaa !10
  store i16 %84, ptr %2, align 2
  store i32 1, ptr %11, align 4
  br label %119

85:                                               ; preds = %80
  %86 = load i32, ptr %8, align 4, !tbaa !16
  %87 = lshr i32 %86, 23
  store i32 %87, ptr %6, align 4, !tbaa !16
  %88 = load i32, ptr %6, align 4, !tbaa !16
  %89 = sub i32 126, %88
  store i32 %89, ptr %10, align 4, !tbaa !16
  %90 = load i32, ptr %8, align 4, !tbaa !16
  %91 = and i32 %90, 8388607
  %92 = or i32 8388608, %91
  store i32 %92, ptr %7, align 4, !tbaa !16
  %93 = load i32, ptr %7, align 4, !tbaa !16
  %94 = load i32, ptr %10, align 4, !tbaa !16
  %95 = sub i32 32, %94
  %96 = shl i32 %93, %95
  store i32 %96, ptr %9, align 4, !tbaa !16
  %97 = load i32, ptr %7, align 4, !tbaa !16
  %98 = load i32, ptr %10, align 4, !tbaa !16
  %99 = lshr i32 %97, %98
  %100 = load i16, ptr %5, align 2, !tbaa !10
  %101 = zext i16 %100 to i32
  %102 = or i32 %101, %99
  %103 = trunc i32 %102 to i16
  store i16 %103, ptr %5, align 2, !tbaa !10
  %104 = load i32, ptr %9, align 4, !tbaa !16
  %105 = icmp ugt i32 %104, -2147483648
  br i1 %105, label %114, label %106

106:                                              ; preds = %85
  %107 = load i32, ptr %9, align 4, !tbaa !16
  %108 = icmp eq i32 %107, -2147483648
  br i1 %108, label %109, label %117

109:                                              ; preds = %106
  %110 = load i16, ptr %5, align 2, !tbaa !10
  %111 = zext i16 %110 to i32
  %112 = and i32 %111, 1
  %113 = icmp ne i32 %112, 0
  br i1 %113, label %114, label %117

114:                                              ; preds = %109, %85
  %115 = load i16, ptr %5, align 2, !tbaa !10
  %116 = add i16 %115, 1
  store i16 %116, ptr %5, align 2, !tbaa !10
  br label %117

117:                                              ; preds = %114, %109, %106
  %118 = load i16, ptr %5, align 2, !tbaa !10
  store i16 %118, ptr %2, align 2
  store i32 1, ptr %11, align 4
  br label %119

119:                                              ; preds = %117, %83, %63, %58, %36, %34
  call void @llvm.lifetime.end.p0(i64 4, ptr %10) #3
  call void @llvm.lifetime.end.p0(i64 4, ptr %9) #3
  call void @llvm.lifetime.end.p0(i64 4, ptr %8) #3
  call void @llvm.lifetime.end.p0(i64 4, ptr %7) #3
  call void @llvm.lifetime.end.p0(i64 4, ptr %6) #3
  call void @llvm.lifetime.end.p0(i64 2, ptr %5) #3
  call void @llvm.lifetime.end.p0(i64 4, ptr %4) #3
  %120 = load i16, ptr %2, align 2
  ret i16 %120
}

; Function Attrs: inlinehint mustprogress nounwind uwtable
define linkonce_odr hidden i16 @_ZN9Imath_3_24half4qNanEv() #6 comdat align 2 {
  %1 = alloca %"class.Imath_3_2::half", align 2
  call void @_ZN9Imath_3_24halfC2ENS0_11FromBitsTagEt(ptr noundef nonnull align 2 dereferenceable(2) %1, i32 noundef 0, i16 noundef zeroext 32767) #3
  %2 = getelementptr inbounds nuw %"class.Imath_3_2::half", ptr %1, i32 0, i32 0
  %3 = load i16, ptr %2, align 2
  ret i16 %3
}

; Function Attrs: inlinehint mustprogress nounwind uwtable
define linkonce_odr hidden i16 @_ZN9Imath_3_24half6negInfEv() #6 comdat align 2 {
  %1 = alloca %"class.Imath_3_2::half", align 2
  call void @_ZN9Imath_3_24halfC2ENS0_11FromBitsTagEt(ptr noundef nonnull align 2 dereferenceable(2) %1, i32 noundef 0, i16 noundef zeroext -1024) #3
  %2 = getelementptr inbounds nuw %"class.Imath_3_2::half", ptr %1, i32 0, i32 0
  %3 = load i16, ptr %2, align 2
  ret i16 %3
}

; Function Attrs: inlinehint mustprogress nounwind uwtable
define linkonce_odr hidden i16 @_ZN9Imath_3_24half6posInfEv() #6 comdat align 2 {
  %1 = alloca %"class.Imath_3_2::half", align 2
  call void @_ZN9Imath_3_24halfC2ENS0_11FromBitsTagEt(ptr noundef nonnull align 2 dereferenceable(2) %1, i32 noundef 0, i16 noundef zeroext 31744) #3
  %2 = getelementptr inbounds nuw %"class.Imath_3_2::half", ptr %1, i32 0, i32 0
  %3 = load i16, ptr %2, align 2
  ret i16 %3
}

; Function Attrs: inlinehint mustprogress nounwind uwtable
define linkonce_odr hidden void @_ZN9Imath_3_24halfC2Ef(ptr noundef nonnull align 2 dereferenceable(2) %0, float noundef %1) unnamed_addr #6 comdat align 2 personality ptr @__gxx_personality_v0 {
  %3 = alloca ptr, align 8
  %4 = alloca float, align 4
  store ptr %0, ptr %3, align 8, !tbaa !12
  store float %1, ptr %4, align 4, !tbaa !3
  %5 = load ptr, ptr %3, align 8
  %6 = getelementptr inbounds nuw %"class.Imath_3_2::half", ptr %5, i32 0, i32 0
  %7 = load float, ptr %4, align 4, !tbaa !3
  %8 = invoke noundef zeroext i16 @_ZL19imath_float_to_halff(float noundef %7)
          to label %9 unwind label %10

9:                                                ; preds = %2
  store i16 %8, ptr %6, align 2, !tbaa !14
  ret void

10:                                               ; preds = %2
  %11 = landingpad { ptr, i32 }
          catch ptr null
  %12 = extractvalue { ptr, i32 } %11, 0
  call void @__clang_call_terminate(ptr %12) #18
  unreachable
}

; Function Attrs: noinline noreturn nounwind uwtable
define linkonce_odr hidden void @__clang_call_terminate(ptr noundef %0) #11 comdat {
  %2 = call ptr @__cxa_begin_catch(ptr %0) #3
  call void @_ZSt9terminatev() #18
  unreachable
}

; Function Attrs: mustprogress nounwind uwtable
define internal void @_ZN12_GLOBAL__N_115setErrorMessageERKSt9exception(ptr noundef nonnull align 8 dereferenceable(8) %0) #4 {
  %2 = alloca ptr, align 8
  store ptr %0, ptr %2, align 8, !tbaa !23
  %3 = load ptr, ptr %2, align 8, !tbaa !23
  %4 = load ptr, ptr %3, align 8, !tbaa !30
  %5 = getelementptr inbounds ptr, ptr %4, i64 2
  %6 = load ptr, ptr %5, align 8
  %7 = call noundef ptr %6(ptr noundef nonnull align 8 dereferenceable(8) %3) #3
  %8 = call ptr @strncpy(ptr noundef @_ZN12_GLOBAL__N_112errorMessageE, ptr noundef %7, i64 noundef 1023) #3
  store i8 0, ptr getelementptr inbounds ([1024 x i8], ptr @_ZN12_GLOBAL__N_112errorMessageE, i64 0, i64 1023), align 1, !tbaa !32
  ret void
}

; Function Attrs: mustprogress uwtable
define linkonce_odr hidden void @_ZN7Imf_3_47RgbaLutC2INS_9roundNBitEEET_NS_12RgbaChannelsE(ptr noundef nonnull align 8 dereferenceable(12) %0, i32 %1, i32 noundef %2) unnamed_addr #7 comdat align 2 {
  %4 = alloca %"struct.Imf_3_4::roundNBit", align 4
  %5 = alloca ptr, align 8
  %6 = alloca i32, align 4
  %7 = alloca %"struct.Imf_3_4::roundNBit", align 4
  %8 = alloca %"class.Imath_3_2::half", align 2
  %9 = alloca %"class.Imath_3_2::half", align 2
  %10 = alloca %"class.Imath_3_2::half", align 2
  %11 = alloca %"class.Imath_3_2::half", align 2
  %12 = alloca %"class.Imath_3_2::half", align 2
  %13 = alloca %"class.Imath_3_2::half", align 2
  %14 = getelementptr inbounds nuw %"struct.Imf_3_4::roundNBit", ptr %4, i32 0, i32 0
  store i32 %1, ptr %14, align 4
  store ptr %0, ptr %5, align 8, !tbaa !133
  store i32 %2, ptr %6, align 4, !tbaa !136
  %15 = load ptr, ptr %5, align 8
  %16 = getelementptr inbounds nuw %"class.Imf_3_4::RgbaLut", ptr %15, i32 0, i32 0
  call void @llvm.memcpy.p0.p0.i64(ptr align 4 %7, ptr align 4 %4, i64 4, i1 false), !tbaa.struct !145
  call void @_ZN9Imath_3_24halfC2Ef(ptr noundef nonnull align 2 dereferenceable(2) %8, float noundef -6.550400e+04) #3
  call void @_ZN9Imath_3_24halfC2Ef(ptr noundef nonnull align 2 dereferenceable(2) %9, float noundef 6.550400e+04) #3
  call void @_ZN9Imath_3_24halfC2Ef(ptr noundef nonnull align 2 dereferenceable(2) %10, float noundef 0.000000e+00) #3
  %17 = call i16 @_ZN9Imath_3_24half6posInfEv() #3
  %18 = getelementptr inbounds nuw %"class.Imath_3_2::half", ptr %11, i32 0, i32 0
  store i16 %17, ptr %18, align 2
  %19 = call i16 @_ZN9Imath_3_24half6negInfEv() #3
  %20 = getelementptr inbounds nuw %"class.Imath_3_2::half", ptr %12, i32 0, i32 0
  store i16 %19, ptr %20, align 2
  %21 = call i16 @_ZN9Imath_3_24half4qNanEv() #3
  %22 = getelementptr inbounds nuw %"class.Imath_3_2::half", ptr %13, i32 0, i32 0
  store i16 %21, ptr %22, align 2
  %23 = getelementptr inbounds nuw %"struct.Imf_3_4::roundNBit", ptr %7, i32 0, i32 0
  %24 = load i32, ptr %23, align 4
  %25 = getelementptr inbounds nuw %"class.Imath_3_2::half", ptr %8, i32 0, i32 0
  %26 = load i16, ptr %25, align 2
  %27 = getelementptr inbounds nuw %"class.Imath_3_2::half", ptr %9, i32 0, i32 0
  %28 = load i16, ptr %27, align 2
  %29 = getelementptr inbounds nuw %"class.Imath_3_2::half", ptr %10, i32 0, i32 0
  %30 = load i16, ptr %29, align 2
  %31 = getelementptr inbounds nuw %"class.Imath_3_2::half", ptr %11, i32 0, i32 0
  %32 = load i16, ptr %31, align 2
  %33 = getelementptr inbounds nuw %"class.Imath_3_2::half", ptr %12, i32 0, i32 0
  %34 = load i16, ptr %33, align 2
  %35 = getelementptr inbounds nuw %"class.Imath_3_2::half", ptr %13, i32 0, i32 0
  %36 = load i16, ptr %35, align 2
  call void @_ZN12halfFunctionIN9Imath_3_24halfEEC2IN7Imf_3_49roundNBitEEET_S1_S1_S1_S1_S1_S1_(ptr noundef nonnull align 8 dereferenceable(8) %16, i32 %24, i16 %26, i16 %28, i16 %30, i16 %32, i16 %34, i16 %36)
  %37 = getelementptr inbounds nuw %"class.Imf_3_4::RgbaLut", ptr %15, i32 0, i32 1
  %38 = load i32, ptr %6, align 4, !tbaa !136
  store i32 %38, ptr %37, align 8, !tbaa !138
  ret void
}

; Function Attrs: mustprogress nounwind uwtable
define linkonce_odr hidden void @_ZN7Imf_3_49roundNBitC2Ei(ptr noundef nonnull align 4 dereferenceable(4) %0, i32 noundef %1) unnamed_addr #4 comdat align 2 {
  %3 = alloca ptr, align 8
  %4 = alloca i32, align 4
  store ptr %0, ptr %3, align 8, !tbaa !141
  store i32 %1, ptr %4, align 4, !tbaa !16
  %5 = load ptr, ptr %3, align 8
  %6 = getelementptr inbounds nuw %"struct.Imf_3_4::roundNBit", ptr %5, i32 0, i32 0
  %7 = load i32, ptr %4, align 4, !tbaa !16
  store i32 %7, ptr %6, align 4, !tbaa !143
  ret void
}

; Function Attrs: mustprogress uwtable
define ptr @ImfNewRoundNBitLut(i32 noundef %0, i32 noundef %1) #7 personality ptr @__gxx_personality_v0 {
  %3 = alloca ptr, align 8
  %4 = alloca i32, align 4
  %5 = alloca i32, align 4
  %6 = alloca ptr, align 8
  %7 = alloca i32, align 4
  %8 = alloca %"struct.Imf_3_4::roundNBit", align 4
  %9 = alloca ptr, align 8
  store i32 %0, ptr %4, align 4, !tbaa !16
  store i32 %1, ptr %5, align 4, !tbaa !16
  %10 = invoke noalias noundef nonnull ptr @_Znwm(i64 noundef 16) #19
          to label %11 unwind label %18

11:                                               ; preds = %2
  %12 = load i32, ptr %4, align 4, !tbaa !16
  invoke void @_ZN7Imf_3_49roundNBitC2Ei(ptr noundef nonnull align 4 dereferenceable(4) %8, i32 noundef %12)
          to label %13 unwind label %22

13:                                               ; preds = %11
  %14 = load i32, ptr %5, align 4, !tbaa !16
  %15 = getelementptr inbounds nuw %"struct.Imf_3_4::roundNBit", ptr %8, i32 0, i32 0
  %16 = load i32, ptr %15, align 4
  invoke void @_ZN7Imf_3_47RgbaLutC2INS_9roundNBitEEET_NS_12RgbaChannelsE(ptr noundef nonnull align 8 dereferenceable(12) %10, i32 %16, i32 noundef %14)
          to label %17 unwind label %22

17:                                               ; preds = %13
  store ptr %10, ptr %3, align 8
  br label %41

18:                                               ; preds = %2
  %19 = landingpad { ptr, i32 }
          catch ptr @_ZTISt9exception
  %20 = extractvalue { ptr, i32 } %19, 0
  store ptr %20, ptr %6, align 8
  %21 = extractvalue { ptr, i32 } %19, 1
  store i32 %21, ptr %7, align 4
  br label %26

22:                                               ; preds = %13, %11
  %23 = landingpad { ptr, i32 }
          cleanup
          catch ptr @_ZTISt9exception
  %24 = extractvalue { ptr, i32 } %23, 0
  store ptr %24, ptr %6, align 8
  %25 = extractvalue { ptr, i32 } %23, 1
  store i32 %25, ptr %7, align 4
  call void @_ZdlPvm(ptr noundef %10, i64 noundef 16) #20
  br label %26

26:                                               ; preds = %22, %18
  %27 = load i32, ptr %7, align 4
  %28 = call i32 @llvm.eh.typeid.for.p0(ptr @_ZTISt9exception) #3
  %29 = icmp eq i32 %27, %28
  br i1 %29, label %30, label %43

30:                                               ; preds = %26
  call void @llvm.lifetime.start.p0(i64 8, ptr %9) #3
  %31 = load ptr, ptr %6, align 8
  %32 = call ptr @__cxa_begin_catch(ptr %31) #3
  store ptr %32, ptr %9, align 8
  %33 = load ptr, ptr %9, align 8, !tbaa !23
  invoke void @_ZN12_GLOBAL__N_115setErrorMessageERKSt9exception(ptr noundef nonnull align 8 dereferenceable(8) %33)
          to label %34 unwind label %35

34:                                               ; preds = %30
  store ptr null, ptr %3, align 8
  call void @__cxa_end_catch()
  call void @llvm.lifetime.end.p0(i64 8, ptr %9) #3
  br label %41

35:                                               ; preds = %30
  %36 = landingpad { ptr, i32 }
          cleanup
  %37 = extractvalue { ptr, i32 } %36, 0
  store ptr %37, ptr %6, align 8
  %38 = extractvalue { ptr, i32 } %36, 1
  store i32 %38, ptr %7, align 4
  invoke void @__cxa_end_catch()
          to label %39 unwind label %48

39:                                               ; preds = %35
  call void @llvm.lifetime.end.p0(i64 8, ptr %9) #3
  br label %43

40:                                               ; No predecessors!
  unreachable

41:                                               ; preds = %34, %17
  %42 = load ptr, ptr %3, align 8
  ret ptr %42

43:                                               ; preds = %39, %26
  %44 = load ptr, ptr %6, align 8
  %45 = load i32, ptr %7, align 4
  %46 = insertvalue { ptr, i32 } poison, ptr %44, 0
  %47 = insertvalue { ptr, i32 } %46, i32 %45, 1
  resume { ptr, i32 } %47

48:                                               ; preds = %35
  %49 = landingpad { ptr, i32 }
          catch ptr null
  %50 = extractvalue { ptr, i32 } %49, 0
  call void @__clang_call_terminate(ptr %50) #18
  unreachable
}