; Function Attrs: mustprogress uwtable
define noundef ptr @ImfNewRoundNBitLut(i32 noundef %0, i32 noundef %1) local_unnamed_addr #8 personality ptr @__gxx_personality_v0 {
  %3 = invoke noalias noundef nonnull dereferenceable(16) ptr @_Znwm(i64 noundef 16) #23
          to label %4 unwind label %6

4:                                                ; preds = %2
  invoke void @_ZN12halfFunctionIN9Imath_3_24halfEEC2IN7Imf_3_49roundNBitEEET_S1_S1_S1_S1_S1_S1_(ptr noundef nonnull align 8 dereferenceable(12) %3, i32 %0, i16 -1025, i16 31743, i16 0, i16 31744, i16 -1024, i16 32767)
          to label %_ZN7Imf_3_47RgbaLutC2INS_9roundNBitEEET_NS_12RgbaChannelsE.exit unwind label %8

_ZN7Imf_3_47RgbaLutC2INS_9roundNBitEEET_NS_12RgbaChannelsE.exit: ; preds = %4
  %5 = getelementptr inbounds nuw i8, ptr %3, i64 8
  store i32 %1, ptr %5, align 8, !tbaa !66
  br label %20

6:                                                ; preds = %2
  %7 = landingpad { ptr, i32 }
          catch ptr @_ZTISt9exception
  br label %10

8:                                                ; preds = %4
  %9 = landingpad { ptr, i32 }
          cleanup
          catch ptr @_ZTISt9exception
  tail call void @_ZdlPvm(ptr noundef nonnull %3, i64 noundef 16) #25
  br label %10

10:                                               ; preds = %8, %6
  %.pn = phi { ptr, i32 } [ %9, %8 ], [ %7, %6 ]
  %.07 = extractvalue { ptr, i32 } %.pn, 1
  %11 = tail call i32 @llvm.eh.typeid.for.p0(ptr nonnull @_ZTISt9exception) #24
  %12 = icmp eq i32 %.07, %11
  br i1 %12, label %13, label %21

13:                                               ; preds = %10
  %.08 = extractvalue { ptr, i32 } %.pn, 0
  %14 = tail call ptr @__cxa_begin_catch(ptr %.08) #24
  %15 = load ptr, ptr %14, align 8, !tbaa !22
  %16 = getelementptr inbounds nuw i8, ptr %15, i64 16
  %17 = load ptr, ptr %16, align 8
  %18 = tail call noundef ptr %17(ptr noundef nonnull align 8 dereferenceable(8) %14) #24
  %19 = tail call ptr @strncpy(ptr noundef nonnull dereferenceable(1) @_ZN12_GLOBAL__N_112errorMessageE, ptr noundef nonnull dereferenceable(1) %18, i64 noundef 1023) #24
  store i8 0, ptr getelementptr inbounds nuw (i8, ptr @_ZN12_GLOBAL__N_112errorMessageE, i64 1023), align 1, !tbaa !15
  tail call void @__cxa_end_catch()
  br label %20

20:                                               ; preds = %_ZN7Imf_3_47RgbaLutC2INS_9roundNBitEEET_NS_12RgbaChannelsE.exit, %13
  %.0 = phi ptr [ null, %13 ], [ %3, %_ZN7Imf_3_47RgbaLutC2INS_9roundNBitEEET_NS_12RgbaChannelsE.exit ]
  ret ptr %.0

21:                                               ; preds = %10
  resume { ptr, i32 } %.pn
}